
test-arm:	file format mach-o arm64


Disassembly of section __TEXT,__text:

0000000100003d2c <_main>:
100003d2c: ff 83 00 d1 	sub	sp, sp, #32
100003d30: fd 7b 01 a9 	stp	x29, x30, [sp, #16]
100003d34: 60 19 02 10 	adr	x0, #17196
100003d38: 1f 20 03 d5 	nop
100003d3c: 44 00 00 94 	bl	0x100003e4c <_printf+0x100003e4c>
100003d40: 0e 00 00 94 	bl	0x100003d78 <_test>
100003d44: e0 0f 00 b9 	str	w0, [sp, #12]
100003d48: c0 19 02 10 	adr	x0, #17208
100003d4c: 1f 20 03 d5 	nop
100003d50: 3f 00 00 94 	bl	0x100003e4c <_printf+0x100003e4c>
100003d54: e0 0f 40 b9 	ldr	w0, [sp, #12]
100003d58: fd 7b 41 a9 	ldp	x29, x30, [sp, #16]
100003d5c: ff 83 00 91 	add	sp, sp, #32
100003d60: c0 03 5f d6 	ret
100003d64: e0 0f 00 b9 	str	w0, [sp, #12]
100003d68: c0 16 02 10 	adr	x0, #17112
100003d6c: 1f 20 03 d5 	nop
100003d70: 37 00 00 94 	bl	0x100003e4c <_printf+0x100003e4c>
100003d74: f5 ff ff 17 	b	0x100003d48 <_main+0x1c>

0000000100003d78 <_test>:
100003d78: fd 7b bf a9 	stp	x29, x30, [sp, #-16]!
100003d7c: 20 14 02 10 	adr	x0, #17028
100003d80: 1f 20 03 d5 	nop
100003d84: 2f 00 00 94 	bl	0x100003e40 <_printf+0x100003e40>
100003d88: fd 7b c1 a8 	ldp	x29, x30, [sp], #16
100003d8c: c0 03 5f d6 	ret

0000000100003d90 <_test2>:
100003d90: f4 4f be a9 	stp	x20, x19, [sp, #-32]!
100003d94: fd 7b 01 a9 	stp	x29, x30, [sp, #16]
100003d98: f8 ff ff 97 	bl	0x100003d78 <_test>
100003d9c: f3 03 00 2a 	mov	w19, w0
100003da0: f6 ff ff 97 	bl	0x100003d78 <_test>
100003da4: e0 03 13 2a 	mov	w0, w19
100003da8: fd 7b 41 a9 	ldp	x29, x30, [sp, #16]
100003dac: f4 4f c2 a8 	ldp	x20, x19, [sp], #32
100003db0: c0 03 5f d6 	ret
100003db4: 01 00 00 14 	b	0x100003db8 <_test2+0x28>
100003db8: fc ff ff 17 	b	0x100003da8 <_test2+0x18>

0000000100003dbc <___my_personality_fn>:
100003dbc: ff 03 01 d1 	sub	sp, sp, #64
100003dc0: fd 7b 03 a9 	stp	x29, x30, [sp, #48]
100003dc4: fd c3 00 91 	add	x29, sp, #48
100003dc8: a0 83 1f b8 	stur	w0, [x29, #-8]
100003dcc: a1 43 1f b8 	stur	w1, [x29, #-12]
100003dd0: e2 0f 00 f9 	str	x2, [sp, #24]
100003dd4: e3 0b 00 f9 	str	x3, [sp, #16]
100003dd8: e4 07 00 f9 	str	x4, [sp, #8]
100003ddc: a8 43 5f b8 	ldur	w8, [x29, #-12]
100003de0: e8 00 00 36 	tbz	w8, #0, 0x100003dfc <___my_personality_fn+0x40>
100003de4: 00 00 00 90 	adrp	x0, 0x100003000 <___my_personality_fn+0x28>
100003de8: 00 f0 39 91 	add	x0, x0, #3708
100003dec: 18 00 00 94 	bl	0x100003e4c <_printf+0x100003e4c>
100003df0: c8 00 80 52 	mov	w8, #6
100003df4: a8 c3 1f b8 	stur	w8, [x29, #-4]
100003df8: 0e 00 00 14 	b	0x100003e30 <___my_personality_fn+0x74>
100003dfc: a8 43 5f b8 	ldur	w8, [x29, #-12]
100003e00: e8 00 08 36 	tbz	w8, #1, 0x100003e1c <___my_personality_fn+0x60>
100003e04: 00 00 00 90 	adrp	x0, 0x100003000 <___my_personality_fn+0x48>
100003e08: 00 80 3a 91 	add	x0, x0, #3744
100003e0c: 10 00 00 94 	bl	0x100003e4c <_printf+0x100003e4c>
100003e10: e8 00 80 52 	mov	w8, #7
100003e14: a8 c3 1f b8 	stur	w8, [x29, #-4]
100003e18: 06 00 00 14 	b	0x100003e30 <___my_personality_fn+0x74>
100003e1c: 00 00 00 90 	adrp	x0, 0x100003000 <___my_personality_fn+0x60>
100003e20: 00 fc 3a 91 	add	x0, x0, #3775
100003e24: 0a 00 00 94 	bl	0x100003e4c <_printf+0x100003e4c>
100003e28: 68 00 80 52 	mov	w8, #3
100003e2c: a8 c3 1f b8 	stur	w8, [x29, #-4]
100003e30: a0 c3 5f b8 	ldur	w0, [x29, #-4]
100003e34: fd 7b 43 a9 	ldp	x29, x30, [sp, #48]
100003e38: ff 03 01 91 	add	sp, sp, #64
100003e3c: c0 03 5f d6 	ret

Disassembly of section __TEXT,__stubs:

0000000100003e40 <__stubs>:
100003e40: 10 00 00 b0 	adrp	x16, 0x100004000 <__stubs+0x4>
100003e44: 10 02 40 f9 	ldr	x16, [x16]
100003e48: 00 02 1f d6 	br	x16
100003e4c: 10 00 00 b0 	adrp	x16, 0x100004000 <__stubs+0x10>
100003e50: 10 0e 40 f9 	ldr	x16, [x16, #24]
100003e54: 00 02 1f d6 	br	x16

Disassembly of section __TEXT,__gcc_except_tab:

0000000100003e58 <GCC_except_table0>:
100003e58: ff 9b 15 01 	<unknown>
100003e5c: 0c 00 14 00 	<unknown>
100003e60: 00 14 04 38 	strb	w0, [x0], #65
100003e64: 01 18 34 00 	<unknown>
100003e68: 00 01 00 00 	udf	#256
100003e6c: a4 01 00 00 	udf	#420

0000000100003e70 <GCC_except_table2>:
100003e70: ff ff 01 08 	stlxrb	w1, wzr, [sp]
100003e74: 08 04 28 00 	<unknown>
100003e78: 10 04 24 00 	<unknown>

Disassembly of section __TEXT,__cstring:

0000000100003e7c <__cstring>:
100003e7c: 50 65 72 73 	<unknown>
100003e80: 6f 6e 61 6c 	ldnp	d15, d27, [x19, #-496]
100003e84: 69 74 79 20 	<unknown>
100003e88: 66 75 6e 63 	<unknown>
100003e8c: 74 69 6f 6e 	<unknown>
100003e90: 2c 20 6c 6f 	umlal2.4s	v12, v1, v12[2]
100003e94: 6f 6b 75 70 	adr	x15, #961903
100003e98: 20 70 68 61 	<unknown>
100003e9c: 73 65 0a 00 	<unknown>
100003ea0: 50 65 72 73 	<unknown>
100003ea4: 6f 6e 61 6c 	ldnp	d15, d27, [x19, #-496]
100003ea8: 69 74 79 20 	<unknown>
100003eac: 66 75 6e 63 	<unknown>
100003eb0: 74 69 6f 6e 	<unknown>
100003eb4: 2c 20 63 6c 	ldnp	d12, d8, [x1, #-464]
100003eb8: 65 61 6e 75 	<unknown>
100003ebc: 70 0a 00 50 	adr	x16, #334
100003ec0: 65 72 73 6f 	<unknown>
100003ec4: 6e 61 6c 69 	ldpsw	x14, x24, [x11, #-160]
100003ec8: 74 79 20 66 	<unknown>
100003ecc: 75 6e 63 74 	<unknown>
100003ed0: 69 6f 6e 2c 	ldnp	s9, s27, [x27, #-144]
100003ed4: 20 65 72 72 	<unknown>
100003ed8: 6f 72 0a 00 	<unknown>

Disassembly of section __TEXT,__unwind_info:

0000000100003edc <__unwind_info>:
100003edc: 01 00 00 00 	udf	#1
100003ee0: 1c 00 00 00 	udf	#28
100003ee4: 00 00 00 00 	udf	#0
100003ee8: 1c 00 00 00 	udf	#28
100003eec: 01 00 00 00 	udf	#1
100003ef0: 20 00 00 00 	udf	#32
100003ef4: 02 00 00 00 	udf	#2
100003ef8: 08 40 00 00 	udf	#16392
100003efc: 2c 3d 00 00 	udf	#15660
100003f00: 48 00 00 00 	udf	#72
100003f04: 38 00 00 00 	udf	#56
100003f08: 41 3e 00 00 	udf	#15937
100003f0c: 00 00 00 00 	udf	#0
100003f10: 48 00 00 00 	udf	#72
100003f14: 2c 3d 00 00 	udf	#15660
100003f18: 58 3e 00 00 	udf	#15960
100003f1c: 90 3d 00 00 	udf	#15760
100003f20: 70 3e 00 00 	udf	#15984
100003f24: 03 00 00 00 	udf	#3
100003f28: 0c 00 04 00 	<unknown>
100003f2c: 1c 00 04 00 	<unknown>
100003f30: 00 00 00 03 	<unknown>
100003f34: 4c 00 00 02 	<unknown>
100003f38: 64 00 00 01 	<unknown>
100003f3c: 90 00 00 00 	udf	#144
100003f40: 00 00 00 04 	<unknown>
100003f44: 80 00 00 13 	sbfx	w0, w4, #0, #1
100003f48: 14 00 00 03 	<unknown>
100003f4c: 54 00 00 13 	sbfx	w20, w2, #0, #1

Disassembly of section __TEXT,__eh_frame:

0000000100003f50 <__eh_frame>:
100003f50: 10 00 00 00 	udf	#16
100003f54: 00 00 00 00 	udf	#0
100003f58: 01 7a 52 00 	<unknown>
100003f5c: 01 78 1e 01 	<unknown>
100003f60: 10 0c 1f 00 	<unknown>
100003f64: 20 00 00 00 	udf	#32
100003f68: 18 00 00 00 	udf	#24
100003f6c: 0c fe ff ff 	<unknown>
100003f70: ff ff ff ff 	<unknown>
100003f74: 18 00 00 00 	udf	#24
100003f78: 00 00 00 00 	udf	#0
100003f7c: 00 44 0e 10 	adr	x0, #116864
100003f80: 9e 01 9d 02 	<unknown>
100003f84: 00 00 00 00 	udf	#0
100003f88: 18 00 00 00 	udf	#24
100003f8c: 00 00 00 00 	udf	#0
100003f90: 01 7a 50 4c 	<unknown>
100003f94: 52 00 01 78 	sturh	w18, [x2, #16]
100003f98: 1e 07 9b 6d 	stp	d30, d1, [x24, #432]!
100003f9c: 00 00 00 10 	adr	x0, #0
100003fa0: 10 0c 1f 00 	<unknown>
100003fa4: 28 00 00 00 	udf	#40
100003fa8: 20 00 00 00 	udf	#32
100003fac: 80 fd ff ff 	<unknown>
100003fb0: ff ff ff ff 	<unknown>
100003fb4: 4c 00 00 00 	udf	#76
100003fb8: 00 00 00 00 	udf	#0
100003fbc: 08 9b fe ff 	<unknown>
100003fc0: ff ff ff ff 	<unknown>
100003fc4: ff 48 0e 20 	<unknown>
100003fc8: 9e 01 9d 02 	<unknown>
100003fcc: 00 00 00 00 	udf	#0
100003fd0: 2c 00 00 00 	udf	#44
100003fd4: 4c 00 00 00 	udf	#76
100003fd8: b8 fd ff ff 	<unknown>
100003fdc: ff ff ff ff 	<unknown>
100003fe0: 2c 00 00 00 	udf	#44
100003fe4: 00 00 00 00 	udf	#0
100003fe8: 08 87 fe ff 	<unknown>
100003fec: ff ff ff ff 	<unknown>
100003ff0: ff 48 0e 20 	<unknown>
100003ff4: 9e 01 9d 02 	<unknown>
100003ff8: 93 03 94 04 	<unknown>
100003ffc: 00 00 00 00 	udf	#0

Disassembly of section __DATA_CONST,__got:

0000000100004000 <__got>:
100004000: 00 00 00 00 	udf	#0
100004004: 00 00 10 80 	<unknown>
100004008: bc 3d 00 00 	udf	#15804
10000400c: 00 00 10 00 	<unknown>
100004010: 28 80 00 00 	udf	#32808
100004014: 00 00 10 00 	<unknown>
100004018: 01 00 00 00 	udf	#1
10000401c: 00 00 00 80 	<unknown>

Disassembly of section __DATA,__data:

0000000100008000 <_unwindThing>:
100008000: 43 00 00 00 	udf	#67
		...
100008020: 07 00 00 00 	udf	#7
100008024: 00 00 00 00 	udf	#0

0000000100008028 <_catchType1>:
100008028: 62 00 00 00 	udf	#98
10000802c: 00 00 00 00 	udf	#0

0000000100008030 <_catchType2>:
100008030: 63 00 00 00 	udf	#99
		...

0000000100008040 <_s1>:
100008040: 43 61 75 67 	<unknown>
100008044: 68 74 20 65 	<unknown>
100008048: 78 63 65 70 	adr	x24, #830575
10000804c: 74 69 6f 6e 	<unknown>
100008050: 20 69 6e 20 	<unknown>
100008054: 6d 61 69 6e 	rsubhn2.8h	v13, v11, v9
100008058: 0a 00 00 00 	udf	#10
10000805c: 00 00 00 00 	udf	#0

0000000100008060 <_s2>:
100008060: 54 68 72 6f 	umlsl2.4s	v20, v2, v2[7]
100008064: 77 69 6e 67 	<unknown>
100008068: 20 65 78 63 	<unknown>
10000806c: 65 70 74 69 	ldpsw	x5, x28, [x3, #-96]
100008070: 6f 6e 20 69 	<unknown>
100008074: 6e 20 6d 61 	<unknown>
100008078: 69 6e 0a 00 	<unknown>
10000807c: 00 00 00 00 	udf	#0

0000000100008080 <_s3>:
100008080: 41 66 74 65 	<unknown>
100008084: 72 20 63 61 	<unknown>
100008088: 74 63 68 20 	<unknown>
10000808c: 69 6e 20 6d 	stp	d9, d27, [x19, #-512]
100008090: 61 69 6e 0a 	bic	w1, w11, w14, lsr #26
100008094: 00          	<unknown>
